; Function Attrs: nounwind uwtable
define i32 @Cba_BlastLessSigned(ptr noundef %0, ptr noundef readonly captures(none) %1, ptr noundef readonly captures(none) %2, i32 noundef %3) local_unnamed_addr #0 {
  %5 = alloca i32, align 4
  %6 = alloca i32, align 4
  %7 = add nsw i32 %3, -1
  %8 = sext i32 %7 to i64
  %9 = getelementptr inbounds i32, ptr %1, i64 %8
  %10 = load i32, ptr %9, align 4
  %11 = getelementptr inbounds i32, ptr %2, i64 %8
  %12 = load i32, ptr %11, align 4
  %13 = tail call i32 @Gia_ManHashXor(ptr noundef %0, i32 noundef %10, i32 noundef %12) #20
  %14 = load i32, ptr %9, align 4
  call void @llvm.lifetime.start.p0(i64 4, ptr nonnull %5)
  call void @llvm.lifetime.start.p0(i64 4, ptr nonnull %6)
  %15 = icmp eq i32 %7, 0
  br i1 %15, label %Cba_BlastLess.exit, label %16

16:                                               ; preds = %4
  call void @Cba_BlastLess_rec(ptr noundef %0, ptr noundef nonnull readonly %1, ptr noundef nonnull readonly %2, i32 noundef %7, ptr noundef nonnull %5, ptr noundef nonnull %6)
  %17 = load i32, ptr %5, align 4
  br label %Cba_BlastLess.exit

Cba_BlastLess.exit:                               ; preds = %4, %16
  %.0.i = phi i32 [ %17, %16 ], [ 0, %4 ]
  call void @llvm.lifetime.end.p0(i64 4, ptr nonnull %5)
  call void @llvm.lifetime.end.p0(i64 4, ptr nonnull %6)
  %18 = tail call i32 @Gia_ManHashMux(ptr noundef %0, i32 noundef %13, i32 noundef %14, i32 noundef %.0.i) #20
  ret i32 %18
}